target datalayout = "e-m:e-p270:32:32-p271:32:32-p272:64:64-i64:64-i128:128-f80:128-n8:16:32:64-S128"
target triple = "x86_64-pc-linux-gnu"

%struct.MvcCubeStruct = type { ptr, i32, i32, [1 x i32] }
%struct.MvcCoverStruct = type { i32, i32, i32, %struct.MvcListStruct, ptr, i32, ptr, ptr, ptr }
%struct.MvcListStruct = type { ptr, ptr, i32 }

; Function Attrs: nounwind uwtable
define internal void @Mvc_CoverCopyColumn(ptr noundef %0, ptr noundef %1, i32 noundef %2, i32 noundef %3) #0 {
  %5 = alloca ptr, align 8
  %6 = alloca ptr, align 8
  %7 = alloca i32, align 4
  %8 = alloca i32, align 4
  %9 = alloca ptr, align 8
  %10 = alloca ptr, align 8
  %11 = alloca i32, align 4
  %12 = alloca i32, align 4
  %13 = alloca i32, align 4
  %14 = alloca i32, align 4
  store ptr %0, ptr %5, align 8, !tbaa !3
  store ptr %1, ptr %6, align 8, !tbaa !3
  store i32 %2, ptr %7, align 4, !tbaa !10
  store i32 %3, ptr %8, align 4, !tbaa !10
  call void @llvm.lifetime.start.p0(i64 8, ptr %9) #3
  call void @llvm.lifetime.start.p0(i64 8, ptr %10) #3
  call void @llvm.lifetime.start.p0(i64 4, ptr %11) #3
  call void @llvm.lifetime.start.p0(i64 4, ptr %12) #3
  call void @llvm.lifetime.start.p0(i64 4, ptr %13) #3
  call void @llvm.lifetime.start.p0(i64 4, ptr %14) #3
  %15 = load i32, ptr %7, align 4, !tbaa !10
  %16 = ashr i32 %15, 5
  store i32 %16, ptr %11, align 4, !tbaa !10
  %17 = load i32, ptr %7, align 4, !tbaa !10
  %18 = and i32 %17, 31
  store i32 %18, ptr %13, align 4, !tbaa !10
  %19 = load i32, ptr %8, align 4, !tbaa !10
  %20 = ashr i32 %19, 5
  store i32 %20, ptr %12, align 4, !tbaa !10
  %21 = load i32, ptr %8, align 4, !tbaa !10
  %22 = and i32 %21, 31
  store i32 %22, ptr %14, align 4, !tbaa !10
  %23 = load ptr, ptr %6, align 8, !tbaa !3
  %24 = call ptr @Mvc_CoverReadCubeHead(ptr noundef %23)
  store ptr %24, ptr %10, align 8, !tbaa !8
  %25 = load ptr, ptr %5, align 8, !tbaa !3
  %26 = getelementptr inbounds nuw %struct.MvcCoverStruct, ptr %25, i32 0, i32 3
  %27 = getelementptr inbounds nuw %struct.MvcListStruct, ptr %26, i32 0, i32 0
  %28 = load ptr, ptr %27, align 8, !tbaa !14
  store ptr %28, ptr %9, align 8, !tbaa !8
  br label %29

29:                                               ; preds = %68, %4
  %30 = load ptr, ptr %9, align 8, !tbaa !8
  %31 = icmp ne ptr %30, null
  br i1 %31, label %32, label %72

32:                                               ; preds = %29
  %33 = load ptr, ptr %9, align 8, !tbaa !8
  %34 = getelementptr inbounds nuw %struct.MvcCubeStruct, ptr %33, i32 0, i32 3
  %35 = load i32, ptr %11, align 4, !tbaa !10
  %36 = sext i32 %35 to i64
  %37 = getelementptr inbounds [1 x i32], ptr %34, i64 0, i64 %36
  %38 = load i32, ptr %37, align 4, !tbaa !10
  %39 = load i32, ptr %13, align 4, !tbaa !10
  %40 = shl i32 1, %39
  %41 = and i32 %38, %40
  %42 = icmp ne i32 %41, 0
  br i1 %42, label %43, label %53

43:                                               ; preds = %32
  %44 = load i32, ptr %14, align 4, !tbaa !10
  %45 = shl i32 1, %44
  %46 = load ptr, ptr %10, align 8, !tbaa !8
  %47 = getelementptr inbounds nuw %struct.MvcCubeStruct, ptr %46, i32 0, i32 3
  %48 = load i32, ptr %12, align 4, !tbaa !10
  %49 = sext i32 %48 to i64
  %50 = getelementptr inbounds [1 x i32], ptr %47, i64 0, i64 %49
  %51 = load i32, ptr %50, align 4, !tbaa !10
  %52 = or i32 %51, %45
  store i32 %52, ptr %50, align 4, !tbaa !10
  br label %64

53:                                               ; preds = %32
  %54 = load i32, ptr %14, align 4, !tbaa !10
  %55 = shl i32 1, %54
  %56 = xor i32 %55, -1
  %57 = load ptr, ptr %10, align 8, !tbaa !8
  %58 = getelementptr inbounds nuw %struct.MvcCubeStruct, ptr %57, i32 0, i32 3
  %59 = load i32, ptr %12, align 4, !tbaa !10
  %60 = sext i32 %59 to i64
  %61 = getelementptr inbounds [1 x i32], ptr %58, i64 0, i64 %60
  %62 = load i32, ptr %61, align 4, !tbaa !10
  %63 = and i32 %62, %56
  store i32 %63, ptr %61, align 4, !tbaa !10
  br label %64

64:                                               ; preds = %53, %43
  %65 = load ptr, ptr %10, align 8, !tbaa !8
  %66 = getelementptr inbounds nuw %struct.MvcCubeStruct, ptr %65, i32 0, i32 0
  %67 = load ptr, ptr %66, align 8, !tbaa !21
  store ptr %67, ptr %10, align 8, !tbaa !8
  br label %68

68:                                               ; preds = %64
  %69 = load ptr, ptr %9, align 8, !tbaa !8
  %70 = getelementptr inbounds nuw %struct.MvcCubeStruct, ptr %69, i32 0, i32 0
  %71 = load ptr, ptr %70, align 8, !tbaa !21
  store ptr %71, ptr %9, align 8, !tbaa !8
  br label %29, !llvm.loop !58

72:                                               ; preds = %29
  call void @llvm.lifetime.end.p0(i64 4, ptr %14) #3
  call void @llvm.lifetime.end.p0(i64 4, ptr %13) #3
  call void @llvm.lifetime.end.p0(i64 4, ptr %12) #3
  call void @llvm.lifetime.end.p0(i64 4, ptr %11) #3
  call void @llvm.lifetime.end.p0(i64 8, ptr %10) #3
  call void @llvm.lifetime.end.p0(i64 8, ptr %9) #3
  ret void
}

; Function Attrs: nounwind uwtable
define ptr @Mvc_CoverRemap(ptr noundef %0, ptr noundef %1, i32 noundef %2) #0 {
  %4 = alloca ptr, align 8
  %5 = alloca ptr, align 8
  %6 = alloca i32, align 4
  %7 = alloca ptr, align 8
  %8 = alloca ptr, align 8
  %9 = alloca ptr, align 8
  %10 = alloca i32, align 4
  %11 = alloca i32, align 4
  %12 = alloca ptr, align 8
  store ptr %0, ptr %4, align 8, !tbaa !3
  store ptr %1, ptr %5, align 8, !tbaa !53
  store i32 %2, ptr %6, align 4, !tbaa !10
  call void @llvm.lifetime.start.p0(i64 8, ptr %7) #3
  call void @llvm.lifetime.start.p0(i64 8, ptr %8) #3
  call void @llvm.lifetime.start.p0(i64 8, ptr %9) #3
  call void @llvm.lifetime.start.p0(i64 4, ptr %10) #3
  %13 = load ptr, ptr %4, align 8, !tbaa !3
  %14 = getelementptr inbounds nuw %struct.MvcCoverStruct, ptr %13, i32 0, i32 8
  %15 = load ptr, ptr %14, align 8, !tbaa !54
  %16 = load i32, ptr %6, align 4, !tbaa !10
  %17 = call ptr @Mvc_CoverAlloc(ptr noundef %15, i32 noundef %16)
  store ptr %17, ptr %7, align 8, !tbaa !3
  %18 = load ptr, ptr %4, align 8, !tbaa !3
  %19 = getelementptr inbounds nuw %struct.MvcCoverStruct, ptr %18, i32 0, i32 3
  %20 = getelementptr inbounds nuw %struct.MvcListStruct, ptr %19, i32 0, i32 0
  %21 = load ptr, ptr %20, align 8, !tbaa !14
  store ptr %21, ptr %8, align 8, !tbaa !8
  br label %22

22:                                               ; preds = %123, %3
  %23 = load ptr, ptr %8, align 8, !tbaa !8
  %24 = icmp ne ptr %23, null
  br i1 %24, label %25, label %127

25:                                               ; preds = %22
  %26 = load ptr, ptr %7, align 8, !tbaa !3
  %27 = call ptr @Mvc_CubeAlloc(ptr noundef %26)
  store ptr %27, ptr %9, align 8, !tbaa !8
  %28 = load ptr, ptr %9, align 8, !tbaa !8
  %29 = getelementptr inbounds nuw %struct.MvcCubeStruct, ptr %28, i32 0, i32 1
  %30 = load i32, ptr %29, align 8
  %31 = and i32 %30, 16777215
  %32 = icmp eq i32 %31, 0
  br i1 %32, label %33, label %43

33:                                               ; preds = %25
  %34 = load ptr, ptr %9, align 8, !tbaa !8
  %35 = getelementptr inbounds nuw %struct.MvcCubeStruct, ptr %34, i32 0, i32 1
  %36 = load i32, ptr %35, align 8
  %37 = lshr i32 %36, 24
  %38 = and i32 %37, 63
  %39 = lshr i32 -1, %38
  %40 = load ptr, ptr %9, align 8, !tbaa !8
  %41 = getelementptr inbounds nuw %struct.MvcCubeStruct, ptr %40, i32 0, i32 3
  %42 = getelementptr inbounds [1 x i32], ptr %41, i64 0, i64 0
  store i32 %39, ptr %42, align 8, !tbaa !10
  br label %96

43:                                               ; preds = %25
  %44 = load ptr, ptr %9, align 8, !tbaa !8
  %45 = getelementptr inbounds nuw %struct.MvcCubeStruct, ptr %44, i32 0, i32 1
  %46 = load i32, ptr %45, align 8
  %47 = and i32 %46, 16777215
  %48 = icmp eq i32 %47, 1
  br i1 %48, label %49, label %62

49:                                               ; preds = %43
  %50 = load ptr, ptr %9, align 8, !tbaa !8
  %51 = getelementptr inbounds nuw %struct.MvcCubeStruct, ptr %50, i32 0, i32 3
  %52 = getelementptr inbounds [1 x i32], ptr %51, i64 0, i64 0
  store i32 -1, ptr %52, align 8, !tbaa !10
  %53 = load ptr, ptr %9, align 8, !tbaa !8
  %54 = getelementptr inbounds nuw %struct.MvcCubeStruct, ptr %53, i32 0, i32 1
  %55 = load i32, ptr %54, align 8
  %56 = lshr i32 %55, 24
  %57 = and i32 %56, 63
  %58 = lshr i32 -1, %57
  %59 = load ptr, ptr %9, align 8, !tbaa !8
  %60 = getelementptr inbounds nuw %struct.MvcCubeStruct, ptr %59, i32 0, i32 3
  %61 = getelementptr inbounds [1 x i32], ptr %60, i64 0, i64 1
  store i32 %58, ptr %61, align 4, !tbaa !10
  br label %95

62:                                               ; preds = %43
  call void @llvm.lifetime.start.p0(i64 4, ptr %11) #3
  %63 = load ptr, ptr %9, align 8, !tbaa !8
  %64 = getelementptr inbounds nuw %struct.MvcCubeStruct, ptr %63, i32 0, i32 1
  %65 = load i32, ptr %64, align 8
  %66 = lshr i32 %65, 24
  %67 = and i32 %66, 63
  %68 = lshr i32 -1, %67
  %69 = load ptr, ptr %9, align 8, !tbaa !8
  %70 = getelementptr inbounds nuw %struct.MvcCubeStruct, ptr %69, i32 0, i32 3
  %71 = load ptr, ptr %9, align 8, !tbaa !8
  %72 = getelementptr inbounds nuw %struct.MvcCubeStruct, ptr %71, i32 0, i32 1
  %73 = load i32, ptr %72, align 8
  %74 = and i32 %73, 16777215
  %75 = zext i32 %74 to i64
  %76 = getelementptr inbounds nuw [1 x i32], ptr %70, i64 0, i64 %75
  store i32 %68, ptr %76, align 4, !tbaa !10
  %77 = load ptr, ptr %9, align 8, !tbaa !8
  %78 = getelementptr inbounds nuw %struct.MvcCubeStruct, ptr %77, i32 0, i32 1
  %79 = load i32, ptr %78, align 8
  %80 = and i32 %79, 16777215
  %81 = sub nsw i32 %80, 1
  store i32 %81, ptr %11, align 4, !tbaa !10
  br label %82

82:                                               ; preds = %91, %62
  %83 = load i32, ptr %11, align 4, !tbaa !10
  %84 = icmp sge i32 %83, 0
  br i1 %84, label %85, label %94

85:                                               ; preds = %82
  %86 = load ptr, ptr %9, align 8, !tbaa !8
  %87 = getelementptr inbounds nuw %struct.MvcCubeStruct, ptr %86, i32 0, i32 3
  %88 = load i32, ptr %11, align 4, !tbaa !10
  %89 = sext i32 %88 to i64
  %90 = getelementptr inbounds [1 x i32], ptr %87, i64 0, i64 %89
  store i32 -1, ptr %90, align 4, !tbaa !10
  br label %91

91:                                               ; preds = %85
  %92 = load i32, ptr %11, align 4, !tbaa !10
  %93 = add nsw i32 %92, -1
  store i32 %93, ptr %11, align 4, !tbaa !10
  br label %82, !llvm.loop !55

94:                                               ; preds = %82
  call void @llvm.lifetime.end.p0(i64 4, ptr %11) #3
  br label %95

95:                                               ; preds = %94, %49
  br label %96

96:                                               ; preds = %95, %33
  call void @llvm.lifetime.start.p0(i64 8, ptr %12) #3
  %97 = load ptr, ptr %7, align 8, !tbaa !3
  %98 = getelementptr inbounds nuw %struct.MvcCoverStruct, ptr %97, i32 0, i32 3
  store ptr %98, ptr %12, align 8, !tbaa !36
  %99 = load ptr, ptr %12, align 8, !tbaa !36
  %100 = getelementptr inbounds nuw %struct.MvcListStruct, ptr %99, i32 0, i32 0
  %101 = load ptr, ptr %100, align 8, !tbaa !38
  %102 = icmp eq ptr %101, null
  br i1 %102, label %103, label %107

103:                                              ; preds = %96
  %104 = load ptr, ptr %9, align 8, !tbaa !8
  %105 = load ptr, ptr %12, align 8, !tbaa !36
  %106 = getelementptr inbounds nuw %struct.MvcListStruct, ptr %105, i32 0, i32 0
  store ptr %104, ptr %106, align 8, !tbaa !38
  br label %113

107:                                              ; preds = %96
  %108 = load ptr, ptr %9, align 8, !tbaa !8
  %109 = load ptr, ptr %12, align 8, !tbaa !36
  %110 = getelementptr inbounds nuw %struct.MvcListStruct, ptr %109, i32 0, i32 1
  %111 = load ptr, ptr %110, align 8, !tbaa !39
  %112 = getelementptr inbounds nuw %struct.MvcCubeStruct, ptr %111, i32 0, i32 0
  store ptr %108, ptr %112, align 8, !tbaa !21
  br label %113

113:                                              ; preds = %107, %103
  %114 = load ptr, ptr %9, align 8, !tbaa !8
  %115 = load ptr, ptr %12, align 8, !tbaa !36
  %116 = getelementptr inbounds nuw %struct.MvcListStruct, ptr %115, i32 0, i32 1
  store ptr %114, ptr %116, align 8, !tbaa !39
  %117 = load ptr, ptr %9, align 8, !tbaa !8
  %118 = getelementptr inbounds nuw %struct.MvcCubeStruct, ptr %117, i32 0, i32 0
  store ptr null, ptr %118, align 8, !tbaa !21
  %119 = load ptr, ptr %12, align 8, !tbaa !36
  %120 = getelementptr inbounds nuw %struct.MvcListStruct, ptr %119, i32 0, i32 2
  %121 = load i32, ptr %120, align 8, !tbaa !40
  %122 = add nsw i32 %121, 1
  store i32 %122, ptr %120, align 8, !tbaa !40
  call void @llvm.lifetime.end.p0(i64 8, ptr %12) #3
  br label %123

123:                                              ; preds = %113
  %124 = load ptr, ptr %8, align 8, !tbaa !8
  %125 = getelementptr inbounds nuw %struct.MvcCubeStruct, ptr %124, i32 0, i32 0
  %126 = load ptr, ptr %125, align 8, !tbaa !21
  store ptr %126, ptr %8, align 8, !tbaa !8
  br label %22, !llvm.loop !56

127:                                              ; preds = %22
  store i32 0, ptr %10, align 4, !tbaa !10
  br label %128

128:                                              ; preds = %149, %127
  %129 = load i32, ptr %10, align 4, !tbaa !10
  %130 = load i32, ptr %6, align 4, !tbaa !10
  %131 = icmp slt i32 %129, %130
  br i1 %131, label %132, label %152

132:                                              ; preds = %128
  %133 = load ptr, ptr %5, align 8, !tbaa !53
  %134 = load i32, ptr %10, align 4, !tbaa !10
  %135 = sext i32 %134 to i64
  %136 = getelementptr inbounds i32, ptr %133, i64 %135
  %137 = load i32, ptr %136, align 4, !tbaa !10
  %138 = icmp slt i32 %137, 0
  br i1 %138, label %139, label %140

139:                                              ; preds = %132
  br label %149

140:                                              ; preds = %132
  %141 = load ptr, ptr %4, align 8, !tbaa !3
  %142 = load ptr, ptr %7, align 8, !tbaa !3
  %143 = load ptr, ptr %5, align 8, !tbaa !53
  %144 = load i32, ptr %10, align 4, !tbaa !10
  %145 = sext i32 %144 to i64
  %146 = getelementptr inbounds i32, ptr %143, i64 %145
  %147 = load i32, ptr %146, align 4, !tbaa !10
  %148 = load i32, ptr %10, align 4, !tbaa !10
  call void @Mvc_CoverCopyColumn(ptr noundef %141, ptr noundef %142, i32 noundef %147, i32 noundef %148)
  br label %149

149:                                              ; preds = %140, %139
  %150 = load i32, ptr %10, align 4, !tbaa !10
  %151 = add nsw i32 %150, 1
  store i32 %151, ptr %10, align 4, !tbaa !10
  br label %128, !llvm.loop !57

152:                                              ; preds = %128
  %153 = load ptr, ptr %7, align 8, !tbaa !3
  call void @llvm.lifetime.end.p0(i64 4, ptr %10) #3
  call void @llvm.lifetime.end.p0(i64 8, ptr %9) #3
  call void @llvm.lifetime.end.p0(i64 8, ptr %8) #3
  call void @llvm.lifetime.end.p0(i64 8, ptr %7) #3
  ret ptr %153
}