; Function Attrs: nounwind uwtable
define ptr @Mvc_CoverRemap(ptr noundef readonly captures(none) %0, ptr noundef readonly captures(none) %1, i32 noundef %2) local_unnamed_addr #1 {
  %4 = getelementptr inbounds nuw i8, ptr %0, i64 72
  %5 = load ptr, ptr %4, align 8, !tbaa !43
  %6 = tail call ptr @Mvc_CoverAlloc(ptr noundef %5, i32 noundef %2) #6
  %7 = getelementptr inbounds nuw i8, ptr %0, i64 16
  %.046 = load ptr, ptr %7, align 8, !tbaa !7
  %.not47 = icmp eq ptr %.046, null
  br i1 %.not47, label %.preheader, label %.lr.ph49

.lr.ph49:                                         ; preds = %3
  %8 = getelementptr inbounds nuw i8, ptr %6, i64 16
  %9 = getelementptr inbounds nuw i8, ptr %6, i64 24
  %10 = getelementptr inbounds nuw i8, ptr %6, i64 32
  br label %12

.preheader:                                       ; preds = %42, %3
  %11 = icmp sgt i32 %2, 0
  br i1 %11, label %.lr.ph51.preheader, label %._crit_edge

.lr.ph51.preheader:                               ; preds = %.preheader
  %wide.trip.count = zext nneg i32 %2 to i64
  br label %.lr.ph51

12:                                               ; preds = %.lr.ph49, %42
  %.048 = phi ptr [ %.046, %.lr.ph49 ], [ %.0, %42 ]
  %13 = tail call ptr @Mvc_CubeAlloc(ptr noundef %6) #6
  %14 = getelementptr inbounds nuw i8, ptr %13, i64 8
  %15 = load i32, ptr %14, align 8
  %16 = and i32 %15, 16777215
  switch i32 %16, label %.lr.ph.preheader [
    i32 0, label %17
    i32 1, label %22
  ]

17:                                               ; preds = %12
  %18 = lshr exact i32 %15, 24
  %19 = and i32 %18, 63
  %20 = lshr i32 -1, %19
  %21 = getelementptr inbounds nuw i8, ptr %13, i64 16
  store i32 %20, ptr %21, align 8, !tbaa !3
  br label %.loopexit

22:                                               ; preds = %12
  %23 = getelementptr inbounds nuw i8, ptr %13, i64 16
  store i32 -1, ptr %23, align 8, !tbaa !3
  %24 = lshr i32 %15, 24
  %25 = and i32 %24, 63
  %26 = lshr i32 -1, %25
  %27 = getelementptr inbounds nuw i8, ptr %13, i64 20
  store i32 %26, ptr %27, align 4, !tbaa !3
  br label %.loopexit

.lr.ph.preheader:                                 ; preds = %12
  %28 = lshr i32 %15, 24
  %29 = and i32 %28, 63
  %30 = lshr i32 -1, %29
  %31 = getelementptr inbounds nuw i8, ptr %13, i64 16
  %32 = zext nneg i32 %16 to i64
  %33 = getelementptr inbounds nuw [1 x i32], ptr %31, i64 0, i64 %32
  store i32 %30, ptr %33, align 4, !tbaa !3
  %34 = shl i32 %15, 2
  %35 = and i32 %34, 67108860
  %36 = zext nneg i32 %35 to i64
  tail call void @llvm.memset.p0.i64(ptr nonnull align 4 %31, i8 -1, i64 %36, i1 false), !tbaa !3
  br label %.loopexit

.loopexit:                                        ; preds = %.lr.ph.preheader, %22, %17
  %37 = load ptr, ptr %8, align 8, !tbaa !28
  %38 = icmp eq ptr %37, null
  br i1 %38, label %39, label %40

39:                                               ; preds = %.loopexit
  store ptr %13, ptr %8, align 8, !tbaa !28
  br label %42

40:                                               ; preds = %.loopexit
  %41 = load ptr, ptr %9, align 8, !tbaa !29
  store ptr %13, ptr %41, align 8, !tbaa !30
  br label %42

42:                                               ; preds = %40, %39
  store ptr %13, ptr %9, align 8, !tbaa !29
  store ptr null, ptr %13, align 8, !tbaa !30
  %43 = load i32, ptr %10, align 8, !tbaa !32
  %44 = add nsw i32 %43, 1
  store i32 %44, ptr %10, align 8, !tbaa !32
  %.0 = load ptr, ptr %.048, align 8, !tbaa !7
  %.not = icmp eq ptr %.0, null
  br i1 %.not, label %.preheader, label %12, !llvm.loop !44

.lr.ph51:                                         ; preds = %.lr.ph51.preheader, %Mvc_CoverCopyColumn.exit
  %indvars.iv = phi i64 [ 0, %.lr.ph51.preheader ], [ %indvars.iv.next, %Mvc_CoverCopyColumn.exit ]
  %45 = getelementptr inbounds nuw i32, ptr %1, i64 %indvars.iv
  %46 = load i32, ptr %45, align 4, !tbaa !3
  %47 = icmp slt i32 %46, 0
  br i1 %47, label %Mvc_CoverCopyColumn.exit, label %48

48:                                               ; preds = %.lr.ph51
  %49 = tail call ptr @Mvc_CoverReadCubeHead(ptr noundef %6) #6
  %.019.i = load ptr, ptr %7, align 8, !tbaa !7
  %.not20.i = icmp eq ptr %.019.i, null
  br i1 %.not20.i, label %Mvc_CoverCopyColumn.exit, label %.lr.ph.i

.lr.ph.i:                                         ; preds = %48
  %50 = trunc nuw nsw i64 %indvars.iv to i32
  %51 = and i32 %50, 31
  %52 = lshr i64 %indvars.iv, 5
  %53 = and i32 %46, 31
  %54 = lshr i32 %46, 5
  %55 = zext nneg i32 %54 to i64
  %56 = shl nuw i32 1, %53
  %57 = shl nuw i32 1, %51
  %58 = and i64 %52, 134217727
  %59 = xor i32 %57, -1
  br label %60

60:                                               ; preds = %60, %.lr.ph.i
  %.022.i = phi ptr [ %.019.i, %.lr.ph.i ], [ %.0.i, %60 ]
  %.01721.i = phi ptr [ %49, %.lr.ph.i ], [ %70, %60 ]
  %61 = getelementptr inbounds nuw i8, ptr %.022.i, i64 16
  %62 = getelementptr inbounds nuw [1 x i32], ptr %61, i64 0, i64 %55
  %63 = load i32, ptr %62, align 4, !tbaa !3
  %64 = and i32 %63, %56
  %.not18.i = icmp eq i32 %64, 0
  %65 = getelementptr inbounds nuw i8, ptr %.01721.i, i64 16
  %66 = getelementptr inbounds nuw [1 x i32], ptr %65, i64 0, i64 %58
  %67 = load i32, ptr %66, align 4, !tbaa !3
  %68 = and i32 %67, %59
  %69 = or i32 %67, %57
  %.sink.i = select i1 %.not18.i, i32 %68, i32 %69
  store i32 %.sink.i, ptr %66, align 4, !tbaa !3
  %70 = load ptr, ptr %.01721.i, align 8, !tbaa !30
  %.0.i = load ptr, ptr %.022.i, align 8, !tbaa !7
  %.not.i = icmp eq ptr %.0.i, null
  br i1 %.not.i, label %Mvc_CoverCopyColumn.exit, label %60, !llvm.loop !45

Mvc_CoverCopyColumn.exit:                         ; preds = %60, %48, %.lr.ph51
  %indvars.iv.next = add nuw nsw i64 %indvars.iv, 1
  %exitcond.not = icmp eq i64 %indvars.iv.next, %wide.trip.count
  br i1 %exitcond.not, label %._crit_edge, label %.lr.ph51, !llvm.loop !46

._crit_edge:                                      ; preds = %Mvc_CoverCopyColumn.exit, %.preheader
  ret ptr %6
}